; Function Attrs: mustprogress uwtable
define hidden void @_ZN3sls9bv_plugin9get_valueEP4expr(ptr dead_on_unwind noalias writable writeonly sret(%class.obj_ref) align 8 captures(none) %0, ptr noundef nonnull align 8 dereferenceable(1049) %1, ptr noundef %2) unnamed_addr #3 align 2 personality ptr @__gxx_personality_v0 {
  %4 = alloca %class.rational, align 8
  %5 = getelementptr inbounds nuw i8, ptr %1, i64 120
  %6 = tail call noundef nonnull align 8 dereferenceable(184) ptr @_ZNK3sls7bv_eval4wvalEP4expr(ptr noundef nonnull align 8 dereferenceable(865) %5, ptr noundef %2)
  call void @llvm.lifetime.start.p0(i64 32, ptr nonnull %4) #12
  %7 = getelementptr inbounds nuw i8, ptr %6, i64 156
  %8 = load i32, ptr %7, align 4, !tbaa !99, !noalias !101
  call void @_ZNK3sls5bvect9get_valueEj(ptr dead_on_unwind nonnull writable sret(%class.rational) align 8 %4, ptr noundef nonnull align 8 dereferenceable(184) %6, i32 noundef %8)
  %9 = invoke noundef ptr @_ZNK4expr8get_sortEv(ptr noundef nonnull align 4 dereferenceable(16) %2)
          to label %10 unwind label %25

10:                                               ; preds = %3
  %11 = getelementptr inbounds nuw i8, ptr %1, i64 32
  %12 = invoke noundef ptr @_ZNK7bv_util10mk_numeralERK8rationalP4sort(ptr noundef nonnull align 8 dereferenceable(24) %11, ptr noundef nonnull align 8 dereferenceable(32) %4, ptr noundef %9)
          to label %13 unwind label %25

13:                                               ; preds = %10
  %14 = getelementptr inbounds nuw i8, ptr %1, i64 16
  %15 = load ptr, ptr %14, align 8, !tbaa !6
  store ptr %12, ptr %0, align 8, !tbaa !104
  %16 = getelementptr inbounds nuw i8, ptr %0, i64 8
  store ptr %15, ptr %16, align 8, !tbaa !106
  %.not.i.i = icmp eq ptr %12, null
  br i1 %.not.i.i, label %_ZN7obj_refI4expr11ast_managerEC2EPS0_RS1_.exit, label %_ZN11ast_manager7inc_refEP3ast.exit.i.i

_ZN11ast_manager7inc_refEP3ast.exit.i.i:          ; preds = %13
  %17 = getelementptr inbounds nuw i8, ptr %12, i64 8
  %18 = load i32, ptr %17, align 4, !tbaa !96
  %19 = add i32 %18, 1
  store i32 %19, ptr %17, align 4, !tbaa !96
  br label %_ZN7obj_refI4expr11ast_managerEC2EPS0_RS1_.exit

_ZN7obj_refI4expr11ast_managerEC2EPS0_RS1_.exit:  ; preds = %_ZN11ast_manager7inc_refEP3ast.exit.i.i, %13
  %20 = load ptr, ptr @_ZN8rational13g_mpq_managerE, align 8, !tbaa !107
  invoke void @_ZN11mpz_managerILb1EE3delEPS0_R3mpz(ptr noundef %20, ptr noundef nonnull align 8 dereferenceable(32) %4)
          to label %.noexc.i unwind label %22

.noexc.i:                                         ; preds = %_ZN7obj_refI4expr11ast_managerEC2EPS0_RS1_.exit
  %21 = getelementptr inbounds nuw i8, ptr %4, i64 16
  invoke void @_ZN11mpz_managerILb1EE3delEPS0_R3mpz(ptr noundef %20, ptr noundef nonnull align 8 dereferenceable(16) %21)
          to label %_ZN8rationalD2Ev.exit unwind label %22

22:                                               ; preds = %.noexc.i, %_ZN7obj_refI4expr11ast_managerEC2EPS0_RS1_.exit
  %23 = landingpad { ptr, i32 }
          catch ptr null
  %24 = extractvalue { ptr, i32 } %23, 0
  call void @__clang_call_terminate(ptr %24) #13
  unreachable

_ZN8rationalD2Ev.exit:                            ; preds = %.noexc.i
  call void @llvm.lifetime.end.p0(i64 32, ptr nonnull %4) #12
  ret void

25:                                               ; preds = %10, %3
  %26 = landingpad { ptr, i32 }
          cleanup
  call void @_ZN8rationalD2Ev(ptr noundef nonnull align 8 dereferenceable(32) %4) #12
  call void @llvm.lifetime.end.p0(i64 32, ptr nonnull %4) #12
  resume { ptr, i32 } %26
}